target datalayout = "e-m:e-p270:32:32-p271:32:32-p272:64:64-i64:64-i128:128-f80:128-n8:16:32:64-S128"
target triple = "x86_64-pc-linux-gnu"

%"class.folly::AsyncUDPSocket" = type { %"class.folly::EventHandler", i16, ptr, ptr, %"class.folly::SocketAddress", %"struct.folly::NetworkSocket", i32, %"class.folly::SocketAddress", %"class.folly::SocketAddress", i8, i8, i8, i8, i8, i8, i32, i32, i32, %"class.folly::Optional.13", %"class.folly::Optional.13", %"class.folly::Optional.15", %"class.folly::Optional.13", ptr, i8, i8, i64, i64, i32, %"class.std::unordered_map", %"class.folly::Function", %"class.std::map", %"class.std::map", ptr, %"class.std::map.26", [8 x i8], %"class.folly::Function.31", %"class.folly::netops::DispatcherContainer" }
%"class.folly::EventHandler" = type { ptr, %"class.folly::EventBaseEvent", ptr }
%"class.folly::EventBaseEvent" = type { %struct.event, ptr, ptr, ptr, %"struct.folly::EventCallback" }
%struct.event = type { %struct.event_callback, %union.anon.2, i32, ptr, %union.anon.4, i16, i16, %struct.timeval }
%struct.event_callback = type { %struct.anon, i16, i8, i8, %union.anon.1, ptr }
%struct.anon = type { ptr, ptr }
%union.anon.1 = type { ptr }
%union.anon.2 = type { %struct.anon.3 }
%struct.anon.3 = type { ptr, ptr }
%union.anon.4 = type { %struct.anon.5 }
%struct.anon.5 = type { %struct.anon.6, %struct.timeval }
%struct.anon.6 = type { ptr, ptr }
%struct.timeval = type { i64, i64 }
%"struct.folly::EventCallback" = type { i32, %union.anon.9 }
%union.anon.9 = type { ptr }
%"struct.folly::NetworkSocket" = type { i32 }
%"class.folly::SocketAddress" = type <{ %"union.folly::SocketAddress::AddrStorage", i16, i8, [5 x i8] }>
%"union.folly::SocketAddress::AddrStorage" = type { %"struct.folly::SocketAddress::ExternalUnixAddr", [8 x i8] }
%"struct.folly::SocketAddress::ExternalUnixAddr" = type { ptr, i32 }
%"class.folly::Optional.15" = type { %"struct.folly::Optional<folly::AsyncUDPSocket::TXTime>::StorageTriviallyDestructible" }
%"struct.folly::Optional<folly::AsyncUDPSocket::TXTime>::StorageTriviallyDestructible" = type { %union.anon.16, i8, [3 x i8] }
%union.anon.16 = type { %"struct.folly::AsyncUDPSocket::TXTime" }
%"struct.folly::AsyncUDPSocket::TXTime" = type <{ i32, i8, [3 x i8] }>
%"class.folly::Optional.13" = type { %"struct.folly::Optional<int>::StorageTriviallyDestructible" }
%"struct.folly::Optional<int>::StorageTriviallyDestructible" = type <{ %union.anon.14, i8, [3 x i8] }>
%union.anon.14 = type { i32 }
%"class.std::unordered_map" = type { %"class.std::_Hashtable" }
%"class.std::_Hashtable" = type { ptr, i64, %"struct.std::__detail::_Hash_node_base", i64, %"struct.std::__detail::_Prime_rehash_policy", ptr }
%"struct.std::__detail::_Hash_node_base" = type { ptr }
%"struct.std::__detail::_Prime_rehash_policy" = type { float, i64 }
%"class.folly::Function" = type { %"union.folly::detail::function::Data", ptr, ptr }
%"union.folly::detail::function::Data" = type { %"struct.folly::detail::function::Data::BigTrivialLayout", [24 x i8] }
%"struct.folly::detail::function::Data::BigTrivialLayout" = type { ptr, i64, i64 }
%"class.std::map" = type { %"class.std::_Rb_tree" }
%"class.std::_Rb_tree" = type { %"struct.std::_Rb_tree<folly::SocketOptionKey, std::pair<const folly::SocketOptionKey, int>, std::_Select1st<std::pair<const folly::SocketOptionKey, int>>, std::less<folly::SocketOptionKey>>::_Rb_tree_impl" }
%"struct.std::_Rb_tree<folly::SocketOptionKey, std::pair<const folly::SocketOptionKey, int>, std::_Select1st<std::pair<const folly::SocketOptionKey, int>>, std::less<folly::SocketOptionKey>>::_Rb_tree_impl" = type { [8 x i8], %"struct.std::_Rb_tree_header" }
%"struct.std::_Rb_tree_header" = type { %"struct.std::_Rb_tree_node_base", i64 }
%"struct.std::_Rb_tree_node_base" = type { i32, ptr, ptr, ptr }
%"class.std::map.26" = type { %"class.std::_Rb_tree.27" }
%"class.std::_Rb_tree.27" = type { %"struct.std::_Rb_tree<folly::SocketOptionKey, std::pair<const folly::SocketOptionKey, std::__cxx11::basic_string<char>>, std::_Select1st<std::pair<const folly::SocketOptionKey, std::__cxx11::basic_string<char>>>, std::less<folly::SocketOptionKey>>::_Rb_tree_impl" }
%"struct.std::_Rb_tree<folly::SocketOptionKey, std::pair<const folly::SocketOptionKey, std::__cxx11::basic_string<char>>, std::_Select1st<std::pair<const folly::SocketOptionKey, std::__cxx11::basic_string<char>>>, std::less<folly::SocketOptionKey>>::_Rb_tree_impl" = type { [8 x i8], %"struct.std::_Rb_tree_header" }
%"class.folly::Function.31" = type { %"union.folly::detail::function::Data", ptr, ptr }
%"class.folly::netops::DispatcherContainer" = type { %"class.std::shared_ptr" }
%"class.std::shared_ptr" = type { %"class.std::__shared_ptr" }
%"class.std::__shared_ptr" = type { ptr, %"class.std::__shared_count" }
%"class.std::__shared_count" = type { ptr }

; Function Attrs: mustprogress nounwind uwtable
define linkonce_odr noundef zeroext i1 @_ZN5follyeqERKNS_13NetworkSocketES2_(ptr noundef nonnull align 4 dereferenceable(4) %0, ptr noundef nonnull align 4 dereferenceable(4) %1) #0 comdat {
  %3 = alloca ptr, align 8
  %4 = alloca ptr, align 8
  store ptr %0, ptr %3, align 8, !tbaa !203
  store ptr %1, ptr %4, align 8, !tbaa !203
  %5 = load ptr, ptr %3, align 8, !tbaa !203
  %6 = getelementptr inbounds nuw %"struct.folly::NetworkSocket", ptr %5, i32 0, i32 0
  %7 = load i32, ptr %6, align 4, !tbaa !205
  %8 = load ptr, ptr %4, align 8, !tbaa !203
  %9 = getelementptr inbounds nuw %"struct.folly::NetworkSocket", ptr %8, i32 0, i32 0
  %10 = load i32, ptr %9, align 4, !tbaa !205
  %11 = icmp eq i32 %7, %10
  ret i1 %11
}

; Function Attrs: mustprogress nounwind uwtable
define linkonce_odr noundef zeroext i1 @_ZN5follyneERKNS_13NetworkSocketES2_(ptr noundef nonnull align 4 dereferenceable(4) %0, ptr noundef nonnull align 4 dereferenceable(4) %1) #0 comdat {
  %3 = alloca ptr, align 8
  %4 = alloca ptr, align 8
  store ptr %0, ptr %3, align 8, !tbaa !203
  store ptr %1, ptr %4, align 8, !tbaa !203
  %5 = load ptr, ptr %3, align 8, !tbaa !203
  %6 = load ptr, ptr %4, align 8, !tbaa !203
  %7 = call noundef zeroext i1 @_ZN5follyeqERKNS_13NetworkSocketES2_(ptr noundef nonnull align 4 dereferenceable(4) %5, ptr noundef nonnull align 4 dereferenceable(4) %6) #25
  %8 = xor i1 %7, true
  ret i1 %8
}

; Function Attrs: mustprogress nounwind uwtable
define linkonce_odr void @_ZN5folly13NetworkSocketC2Ev(ptr noundef nonnull align 4 dereferenceable(4) %0) unnamed_addr #0 comdat align 2 {
  %2 = alloca ptr, align 8
  store ptr %0, ptr %2, align 8, !tbaa !203
  %3 = load ptr, ptr %2, align 8
  %4 = getelementptr inbounds nuw %"struct.folly::NetworkSocket", ptr %3, i32 0, i32 0
  store i32 -1, ptr %4, align 4, !tbaa !205
  ret void
}

; Function Attrs: mustprogress nounwind uwtable
define linkonce_odr void @_ZNK5folly9EventBase25dcheckIsInEventBaseThreadEv(ptr noundef nonnull align 16 dereferenceable(632) %0) #0 comdat align 2 {
  %2 = alloca ptr, align 8
  store ptr %0, ptr %2, align 8, !tbaa !161
  ret void
}

; Function Attrs: mustprogress uwtable
define void @_ZN5folly14AsyncUDPSocket5closeEv(ptr noundef nonnull align 16 dereferenceable(768) %0) unnamed_addr #1 align 2 {
  %2 = alloca ptr, align 8
  %3 = alloca %"struct.folly::NetworkSocket", align 4
  %4 = alloca %"struct.folly::NetworkSocket", align 4
  %5 = alloca %"struct.folly::NetworkSocket", align 4
  %6 = alloca ptr, align 8
  store ptr %0, ptr %2, align 8, !tbaa !7
  %7 = load ptr, ptr %2, align 8
  %8 = getelementptr inbounds nuw %"class.folly::AsyncUDPSocket", ptr %7, i32 0, i32 3
  %9 = load ptr, ptr %8, align 8, !tbaa !149
  call void @_ZNK5folly9EventBase25dcheckIsInEventBaseThreadEv(ptr noundef nonnull align 16 dereferenceable(632) %9)
  call void @_ZN5folly12EventHandler17unregisterHandlerEv(ptr noundef nonnull align 8 dereferenceable(184) %7)
  %10 = getelementptr inbounds nuw %"class.folly::AsyncUDPSocket", ptr %7, i32 0, i32 5
  call void @llvm.lifetime.start.p0(i64 4, ptr %3) #25
  call void @_ZN5folly13NetworkSocketC2Ev(ptr noundef nonnull align 4 dereferenceable(4) %3)
  %11 = call noundef zeroext i1 @_ZN5follyneERKNS_13NetworkSocketES2_(ptr noundef nonnull align 4 dereferenceable(4) %10, ptr noundef nonnull align 4 dereferenceable(4) %3) #25
  br i1 %11, label %12, label %16

12:                                               ; preds = %1
  %13 = getelementptr inbounds nuw %"class.folly::AsyncUDPSocket", ptr %7, i32 0, i32 6
  %14 = load i32, ptr %13, align 4, !tbaa !82
  %15 = icmp eq i32 %14, 0
  br label %16

16:                                               ; preds = %12, %1
  %17 = phi i1 [ false, %1 ], [ %15, %12 ]
  call void @llvm.lifetime.end.p0(i64 4, ptr %3) #25
  br i1 %17, label %18, label %23

18:                                               ; preds = %16
  %19 = getelementptr inbounds nuw %"class.folly::AsyncUDPSocket", ptr %7, i32 0, i32 5
  call void @llvm.memcpy.p0.p0.i64(ptr align 4 %4, ptr align 16 %19, i64 4, i1 false), !tbaa.struct !77
  %20 = getelementptr inbounds nuw %"struct.folly::NetworkSocket", ptr %4, i32 0, i32 0
  %21 = load i32, ptr %20, align 4
  %22 = call noundef i32 @_ZN5folly6netops5closeENS_13NetworkSocketE(i32 %21)
  br label %23

23:                                               ; preds = %18, %16
  call void @llvm.lifetime.start.p0(i64 4, ptr %5) #25
  call void @_ZN5folly13NetworkSocketC2Ev(ptr noundef nonnull align 4 dereferenceable(4) %5)
  %24 = getelementptr inbounds nuw %"class.folly::AsyncUDPSocket", ptr %7, i32 0, i32 5
  call void @llvm.memcpy.p0.p0.i64(ptr align 16 %24, ptr align 4 %5, i64 4, i1 false), !tbaa.struct !77
  call void @llvm.lifetime.end.p0(i64 4, ptr %5) #25
  %25 = getelementptr inbounds nuw %"class.folly::AsyncUDPSocket", ptr %7, i32 0, i32 2
  %26 = load ptr, ptr %25, align 16, !tbaa !14
  %27 = icmp ne ptr %26, null
  br i1 %27, label %28, label %36

28:                                               ; preds = %23
  call void @llvm.lifetime.start.p0(i64 8, ptr %6) #25
  %29 = getelementptr inbounds nuw %"class.folly::AsyncUDPSocket", ptr %7, i32 0, i32 2
  %30 = load ptr, ptr %29, align 16, !tbaa !14
  store ptr %30, ptr %6, align 8, !tbaa !148
  %31 = getelementptr inbounds nuw %"class.folly::AsyncUDPSocket", ptr %7, i32 0, i32 2
  store ptr null, ptr %31, align 16, !tbaa !14
  %32 = load ptr, ptr %6, align 8, !tbaa !148
  %33 = load ptr, ptr %32, align 8, !tbaa !96
  %34 = getelementptr inbounds ptr, ptr %33, i64 5
  %35 = load ptr, ptr %34, align 8
  call void %35(ptr noundef nonnull align 8 dereferenceable(8) %32) #25
  call void @llvm.lifetime.end.p0(i64 8, ptr %6) #25
  br label %36

36:                                               ; preds = %28, %23
  ret void
}