; Function Attrs: mustprogress uwtable
define void @_ZN5folly14AsyncUDPSocket5closeEv(ptr noundef nonnull align 16 dereferenceable(768) %0) unnamed_addr #1 align 2 {
  tail call void @_ZN5folly12EventHandler17unregisterHandlerEv(ptr noundef nonnull align 8 dereferenceable(184) %0)
  %2 = getelementptr inbounds nuw i8, ptr %0, i64 240
  %3 = load i32, ptr %2, align 16, !tbaa !7
  %4 = icmp ne i32 %3, -1
  %5 = getelementptr inbounds nuw i8, ptr %0, i64 244
  %6 = load i32, ptr %5, align 4
  %7 = icmp eq i32 %6, 0
  %or.cond = select i1 %4, i1 %7, i1 false
  br i1 %or.cond, label %8, label %.critedge

8:                                                ; preds = %1
  %9 = tail call noundef i32 @_ZN5folly6netops5closeENS_13NetworkSocketE(i32 %3)
  br label %.critedge

.critedge:                                        ; preds = %1, %8
  store i32 -1, ptr %2, align 16, !tbaa !34
  %10 = getelementptr inbounds nuw i8, ptr %0, i64 192
  %11 = load ptr, ptr %10, align 16, !tbaa !155
  %.not = icmp eq ptr %11, null
  br i1 %.not, label %16, label %12

12:                                               ; preds = %.critedge
  store ptr null, ptr %10, align 16, !tbaa !155
  %13 = load ptr, ptr %11, align 8, !tbaa !124
  %14 = getelementptr inbounds nuw i8, ptr %13, i64 40
  %15 = load ptr, ptr %14, align 8
  tail call void %15(ptr noundef nonnull align 8 dereferenceable(8) %11) #36
  br label %16

16:                                               ; preds = %12, %.critedge
  ret void
}